(dp0
S'acc'
p1
(lp2
cnumpy.core.multiarray
scalar
p3
(cnumpy
dtype
p4
(S'f8'
p5
I0
I1
tp6
Rp7
(I3
S'<'
p8
NNNI-1
I-1
I0
tp9
bS'\xf0Ie\x85\xa9\x12\xe9?'
p10
tp11
Rp12
asS'loss'
p13
(lp14
g3
(g7
S'\xebO\xc3\xb1}\xe4\xe3?'
p15
tp16
Rp17
asS'val_acc'
p18
(lp19
g3
(g7
S'\xb1H\x198\x13\x80\xe9?'
p20
tp21
Rp22
asS'val_loss'
p23
(lp24
g3
(g7
S'\x02\xe4\xb1z\xf7)\xe1?'
p25
tp26
Rp27
as.